target datalayout = "e-m:e-p270:32:32-p271:32:32-p272:64:64-i64:64-i128:128-f80:128-n8:16:32:64-S128"
target triple = "x86_64-unknown-linux-gnu"

%"class.zmq::xsub_t" = type <{ %"class.zmq::socket_base_t.base", [7 x i8], %"class.zmq::fq_t", %"class.zmq::dist_t", %"class.zmq::radix_tree_t", i8, i8, [6 x i8], %"class.zmq::msg_t", i8, i8, i8, i8, [4 x i8] }>
%"class.zmq::socket_base_t.base" = type <{ %"class.zmq::own_t.base", [4 x i8], %"class.zmq::array_item_t.base", [4 x i8], %"struct.zmq::i_poll_events", %"struct.zmq::i_pipe_events", %"class.zmq::mutex_t", %"class.std::multimap", %"class.zmq::socket_base_t::inprocs_t", i32, i8, i8, [2 x i8], ptr, %"class.zmq::array_t", ptr, ptr, i64, i32, i8, [3 x i8], %"class.zmq::clock_t", ptr, i64, %"class.std::__cxx11::basic_string", i8, [7 x i8], ptr, %"class.zmq::mutex_t", i8 }>
%"class.zmq::own_t.base" = type <{ %"class.zmq::object_t.base", [4 x i8], %"struct.zmq::options_t", i8, [7 x i8], %"class.zmq::atomic_counter_t", i64, ptr, %"class.std::set.28", i32 }>
%"class.zmq::object_t.base" = type <{ ptr, ptr, i32 }>
%"struct.zmq::options_t" = type { i32, i32, i64, i8, [256 x i8], i32, i32, i32, i32, i32, i32, i32, i32, i8, %"struct.zmq::atomic_value_t", i32, i32, i32, i32, i32, i32, i64, i32, i32, i8, i32, i8, i8, i8, i8, i8, %"class.std::__cxx11::basic_string", %"class.std::__cxx11::basic_string", %"class.std::__cxx11::basic_string", i32, i32, i32, i32, %"class.std::vector", %"class.std::set", %"class.std::set", %"class.std::set.6", i32, i32, %"class.std::__cxx11::basic_string", %"class.std::__cxx11::basic_string", %"class.std::__cxx11::basic_string", [32 x i8], [32 x i8], [32 x i8], %"class.std::__cxx11::basic_string", %"class.std::__cxx11::basic_string", i32, i32, i8, i32, i8, i32, i8, i16, i32, i32, i32, %"class.std::__cxx11::basic_string", i8, i8, i8, i32, i32, i8, i32, %"class.std::map", i32, %"class.std::__cxx11::basic_string", %"class.std::__cxx11::basic_string", %"class.std::__cxx11::basic_string", %"class.std::__cxx11::basic_string", i8, %"class.std::vector.21", i8, %"class.std::vector.21", i8, %"class.std::vector.21", i8, i32, i8, i32, i32, i32, i32, i32, i8, i32 }
%"struct.zmq::atomic_value_t" = type { %"struct.std::atomic" }
%"struct.std::atomic" = type { %"struct.std::__atomic_base" }
%"struct.std::__atomic_base" = type { i32 }
%"class.std::vector" = type { %"struct.std::_Vector_base" }
%"struct.std::_Vector_base" = type { %"struct.std::_Vector_base<zmq::tcp_address_mask_t, std::allocator<zmq::tcp_address_mask_t>>::_Vector_impl" }
%"struct.std::_Vector_base<zmq::tcp_address_mask_t, std::allocator<zmq::tcp_address_mask_t>>::_Vector_impl" = type { %"struct.std::_Vector_base<zmq::tcp_address_mask_t, std::allocator<zmq::tcp_address_mask_t>>::_Vector_impl_data" }
%"struct.std::_Vector_base<zmq::tcp_address_mask_t, std::allocator<zmq::tcp_address_mask_t>>::_Vector_impl_data" = type { ptr, ptr, ptr }
%"class.std::set" = type { %"class.std::_Rb_tree" }
%"class.std::_Rb_tree" = type { %"struct.std::_Rb_tree<unsigned int, unsigned int, std::_Identity<unsigned int>, std::less<unsigned int>>::_Rb_tree_impl" }
%"struct.std::_Rb_tree<unsigned int, unsigned int, std::_Identity<unsigned int>, std::less<unsigned int>>::_Rb_tree_impl" = type { %"struct.std::_Rb_tree_key_compare", %"struct.std::_Rb_tree_header" }
%"struct.std::_Rb_tree_key_compare" = type { %"struct.std::less" }
%"struct.std::less" = type { i8 }
%"struct.std::_Rb_tree_header" = type { %"struct.std::_Rb_tree_node_base", i64 }
%"struct.std::_Rb_tree_node_base" = type { i32, ptr, ptr, ptr }
%"class.std::set.6" = type { %"class.std::_Rb_tree.7" }
%"class.std::_Rb_tree.7" = type { %"struct.std::_Rb_tree<int, int, std::_Identity<int>, std::less<int>>::_Rb_tree_impl" }
%"struct.std::_Rb_tree<int, int, std::_Identity<int>, std::less<int>>::_Rb_tree_impl" = type { %"struct.std::_Rb_tree_key_compare.11", %"struct.std::_Rb_tree_header" }
%"struct.std::_Rb_tree_key_compare.11" = type { %"struct.std::less.12" }
%"struct.std::less.12" = type { i8 }
%"class.std::map" = type { %"class.std::_Rb_tree.14" }
%"class.std::_Rb_tree.14" = type { %"struct.std::_Rb_tree<std::__cxx11::basic_string<char>, std::pair<const std::__cxx11::basic_string<char>, std::__cxx11::basic_string<char>>, std::_Select1st<std::pair<const std::__cxx11::basic_string<char>, std::__cxx11::basic_string<char>>>, std::less<std::__cxx11::basic_string<char>>>::_Rb_tree_impl" }
%"struct.std::_Rb_tree<std::__cxx11::basic_string<char>, std::pair<const std::__cxx11::basic_string<char>, std::__cxx11::basic_string<char>>, std::_Select1st<std::pair<const std::__cxx11::basic_string<char>, std::__cxx11::basic_string<char>>>, std::less<std::__cxx11::basic_string<char>>>::_Rb_tree_impl" = type { %"struct.std::_Rb_tree_key_compare.18", %"struct.std::_Rb_tree_header" }
%"struct.std::_Rb_tree_key_compare.18" = type { %"struct.std::less.19" }
%"struct.std::less.19" = type { i8 }
%"class.std::vector.21" = type { %"struct.std::_Vector_base.22" }
%"struct.std::_Vector_base.22" = type { %"struct.std::_Vector_base<unsigned char, std::allocator<unsigned char>>::_Vector_impl" }
%"struct.std::_Vector_base<unsigned char, std::allocator<unsigned char>>::_Vector_impl" = type { %"struct.std::_Vector_base<unsigned char, std::allocator<unsigned char>>::_Vector_impl_data" }
%"struct.std::_Vector_base<unsigned char, std::allocator<unsigned char>>::_Vector_impl_data" = type { ptr, ptr, ptr }
%"class.zmq::atomic_counter_t" = type { %"struct.std::atomic.26", [4 x i8] }
%"struct.std::atomic.26" = type { %"struct.std::__atomic_base.27" }
%"struct.std::__atomic_base.27" = type { i32 }
%"class.std::set.28" = type { %"class.std::_Rb_tree.29" }
%"class.std::_Rb_tree.29" = type { %"struct.std::_Rb_tree<zmq::own_t *, zmq::own_t *, std::_Identity<zmq::own_t *>, std::less<zmq::own_t *>>::_Rb_tree_impl" }
%"struct.std::_Rb_tree<zmq::own_t *, zmq::own_t *, std::_Identity<zmq::own_t *>, std::less<zmq::own_t *>>::_Rb_tree_impl" = type { %"struct.std::_Rb_tree_key_compare.33", %"struct.std::_Rb_tree_header" }
%"struct.std::_Rb_tree_key_compare.33" = type { %"struct.std::less.34" }
%"struct.std::less.34" = type { i8 }
%"class.zmq::array_item_t.base" = type <{ ptr, i32 }>
%"struct.zmq::i_poll_events" = type { ptr }
%"struct.zmq::i_pipe_events" = type { ptr }
%"class.std::multimap" = type { %"class.std::_Rb_tree.36" }
%"class.std::_Rb_tree.36" = type { %"struct.std::_Rb_tree<std::__cxx11::basic_string<char>, std::pair<const std::__cxx11::basic_string<char>, std::pair<zmq::own_t *, zmq::pipe_t *>>, std::_Select1st<std::pair<const std::__cxx11::basic_string<char>, std::pair<zmq::own_t *, zmq::pipe_t *>>>, std::less<std::__cxx11::basic_string<char>>>::_Rb_tree_impl" }
%"struct.std::_Rb_tree<std::__cxx11::basic_string<char>, std::pair<const std::__cxx11::basic_string<char>, std::pair<zmq::own_t *, zmq::pipe_t *>>, std::_Select1st<std::pair<const std::__cxx11::basic_string<char>, std::pair<zmq::own_t *, zmq::pipe_t *>>>, std::less<std::__cxx11::basic_string<char>>>::_Rb_tree_impl" = type { %"struct.std::_Rb_tree_key_compare.18", %"struct.std::_Rb_tree_header" }
%"class.zmq::socket_base_t::inprocs_t" = type { %"class.std::multimap.40" }
%"class.std::multimap.40" = type { %"class.std::_Rb_tree.41" }
%"class.std::_Rb_tree.41" = type { %"struct.std::_Rb_tree<std::__cxx11::basic_string<char>, std::pair<const std::__cxx11::basic_string<char>, zmq::pipe_t *>, std::_Select1st<std::pair<const std::__cxx11::basic_string<char>, zmq::pipe_t *>>, std::less<std::__cxx11::basic_string<char>>>::_Rb_tree_impl" }
%"struct.std::_Rb_tree<std::__cxx11::basic_string<char>, std::pair<const std::__cxx11::basic_string<char>, zmq::pipe_t *>, std::_Select1st<std::pair<const std::__cxx11::basic_string<char>, zmq::pipe_t *>>, std::less<std::__cxx11::basic_string<char>>>::_Rb_tree_impl" = type { %"struct.std::_Rb_tree_key_compare.18", %"struct.std::_Rb_tree_header" }
%"class.zmq::array_t" = type { %"class.std::vector.45" }
%"class.std::vector.45" = type { %"struct.std::_Vector_base.46" }
%"struct.std::_Vector_base.46" = type { %"struct.std::_Vector_base<zmq::pipe_t *, std::allocator<zmq::pipe_t *>>::_Vector_impl" }
%"struct.std::_Vector_base<zmq::pipe_t *, std::allocator<zmq::pipe_t *>>::_Vector_impl" = type { %"struct.std::_Vector_base<zmq::pipe_t *, std::allocator<zmq::pipe_t *>>::_Vector_impl_data" }
%"struct.std::_Vector_base<zmq::pipe_t *, std::allocator<zmq::pipe_t *>>::_Vector_impl_data" = type { ptr, ptr, ptr }
%"class.zmq::clock_t" = type { i64, i64 }
%"class.std::__cxx11::basic_string" = type { %"struct.std::__cxx11::basic_string<char>::_Alloc_hider", i64, %union.anon }
%"struct.std::__cxx11::basic_string<char>::_Alloc_hider" = type { ptr }
%union.anon = type { i64, [8 x i8] }
%"class.zmq::mutex_t" = type <{ %union.pthread_mutex_t, %union.pthread_mutexattr_t, [4 x i8] }>
%union.pthread_mutex_t = type { %struct.__pthread_mutex_s }
%struct.__pthread_mutex_s = type { i32, i32, i32, i32, i32, i16, i16, %struct.__pthread_internal_list }
%struct.__pthread_internal_list = type { ptr, ptr }
%union.pthread_mutexattr_t = type { i32 }
%"class.zmq::fq_t" = type <{ %"class.zmq::array_t.50", i64, i64, i8, [7 x i8] }>
%"class.zmq::array_t.50" = type { %"class.std::vector.45" }
%"class.zmq::dist_t" = type <{ %"class.zmq::array_t.51", i64, i64, i64, i8, [7 x i8] }>
%"class.zmq::array_t.51" = type { %"class.std::vector.45" }
%"class.zmq::radix_tree_t" = type { %struct.node_t, %"class.zmq::atomic_counter_t" }
%struct.node_t = type { ptr }
%"class.zmq::msg_t" = type { %union.anon.52 }
%union.anon.52 = type { %struct.anon }
%struct.anon = type { ptr, [34 x i8], i8, i8, i32, %"union.zmq::msg_t::group_t" }
%"union.zmq::msg_t::group_t" = type { %struct.anon.54 }
%struct.anon.54 = type { i8, ptr }

; Function Attrs: mustprogress nounwind uwtable
define noundef i32 @_ZN3zmq6xsub_t11xsetsockoptEiPKvm(ptr noundef nonnull align 8 dereferenceable(2028) %this, i32 noundef %option_, ptr noundef %optval_, i64 noundef %optvallen_) unnamed_addr #2 align 2 {
entry:
  %retval = alloca i32, align 4
  %this.addr = alloca ptr, align 8
  %option_.addr = alloca i32, align 4
  %optval_.addr = alloca ptr, align 8
  %optvallen_.addr = alloca i64, align 8
  store ptr %this, ptr %this.addr, align 8
  store i32 %option_, ptr %option_.addr, align 4
  store ptr %optval_, ptr %optval_.addr, align 8
  store i64 %optvallen_, ptr %optvallen_.addr, align 8
  %this1 = load ptr, ptr %this.addr, align 8
  %0 = load i32, ptr %option_.addr, align 4
  %cmp = icmp eq i32 %0, 108
  br i1 %cmp, label %if.then, label %if.else

if.then:                                          ; preds = %entry
  %1 = load i64, ptr %optvallen_.addr, align 8
  %cmp2 = icmp ne i64 %1, 4
  br i1 %cmp2, label %if.then4, label %lor.lhs.false

lor.lhs.false:                                    ; preds = %if.then
  %2 = load ptr, ptr %optval_.addr, align 8
  %3 = load i32, ptr %2, align 4
  %cmp3 = icmp slt i32 %3, 0
  br i1 %cmp3, label %if.then4, label %if.end

if.then4:                                         ; preds = %lor.lhs.false, %if.then
  %call = call ptr @__errno_location() #9
  store i32 22, ptr %call, align 4
  store i32 -1, ptr %retval, align 4
  br label %return

if.end:                                           ; preds = %lor.lhs.false
  %4 = load ptr, ptr %optval_.addr, align 8
  %5 = load i32, ptr %4, align 4
  %cmp5 = icmp ne i32 %5, 0
  %_only_first_subscribe = getelementptr inbounds %"class.zmq::xsub_t", ptr %this1, i32 0, i32 12
  %frombool = zext i1 %cmp5 to i8
  store i8 %frombool, ptr %_only_first_subscribe, align 1
  store i32 0, ptr %retval, align 4
  br label %return

if.else:                                          ; preds = %entry
  %6 = load i32, ptr %option_.addr, align 4
  %cmp6 = icmp eq i32 %6, 115
  br i1 %cmp6, label %if.then7, label %if.end10

if.then7:                                         ; preds = %if.else
  %7 = load ptr, ptr %optval_.addr, align 8
  %8 = load i32, ptr %7, align 4
  %cmp8 = icmp ne i32 %8, 0
  %_verbose_unsubs = getelementptr inbounds %"class.zmq::xsub_t", ptr %this1, i32 0, i32 5
  %frombool9 = zext i1 %cmp8 to i8
  store i8 %frombool9, ptr %_verbose_unsubs, align 8
  store i32 0, ptr %retval, align 4
  br label %return

if.end10:                                         ; preds = %if.else
  br label %if.end11

if.end11:                                         ; preds = %if.end10
  %call12 = call ptr @__errno_location() #9
  store i32 22, ptr %call12, align 4
  store i32 -1, ptr %retval, align 4
  br label %return

return:                                           ; preds = %if.end11, %if.then7, %if.end, %if.then4
  %9 = load i32, ptr %retval, align 4
  ret i32 %9
}