; Function Attrs: mustprogress nofree nosync nounwind willreturn memory(write, argmem: readwrite, inaccessiblemem: none) uwtable
define noundef i32 @_ZN3zmq6xsub_t11xsetsockoptEiPKvm(ptr nocapture noundef nonnull writeonly align 8 dereferenceable(2028) %this, i32 noundef %option_, ptr nocapture noundef readonly %optval_, i64 noundef %optvallen_) unnamed_addr #9 align 2 {
entry:
  switch i32 %option_, label %if.end11 [
    i32 108, label %if.then
    i32 115, label %if.then7
  ]

if.then:                                          ; preds = %entry
  %cmp2.not = icmp eq i64 %optvallen_, 4
  br i1 %cmp2.not, label %lor.lhs.false, label %if.then4

lor.lhs.false:                                    ; preds = %if.then
  %0 = load i32, ptr %optval_, align 4
  %cmp3 = icmp slt i32 %0, 0
  br i1 %cmp3, label %if.then4, label %if.end

if.then4:                                         ; preds = %lor.lhs.false, %if.then
  %call = tail call ptr @__errno_location() #12
  store i32 22, ptr %call, align 4
  br label %return

if.end:                                           ; preds = %lor.lhs.false
  %cmp5 = icmp ne i32 %0, 0
  %_only_first_subscribe = getelementptr inbounds i8, ptr %this, i64 2027
  %frombool = zext i1 %cmp5 to i8
  store i8 %frombool, ptr %_only_first_subscribe, align 1
  br label %return

if.then7:                                         ; preds = %entry
  %1 = load i32, ptr %optval_, align 4
  %cmp8 = icmp ne i32 %1, 0
  %_verbose_unsubs = getelementptr inbounds i8, ptr %this, i64 1952
  %frombool9 = zext i1 %cmp8 to i8
  store i8 %frombool9, ptr %_verbose_unsubs, align 8
  br label %return

if.end11:                                         ; preds = %entry
  %call12 = tail call ptr @__errno_location() #12
  store i32 22, ptr %call12, align 4
  br label %return

return:                                           ; preds = %if.end11, %if.then7, %if.end, %if.then4
  %retval.0 = phi i32 [ -1, %if.then4 ], [ 0, %if.end ], [ 0, %if.then7 ], [ -1, %if.end11 ]
  ret i32 %retval.0
}